(lp1
(I238
VPEDROS
I8
S'05/11 21:31'
tp2
a(I236
S'pedros'
I8
S'12/10 22:27'
tp3
a(I217
S'pedros'
I8
S'12/10 20:19'
tp4
a(I198
S'pedros'
I8
S'12/10 19:12'
tp5
a(I196
S'steph'
I8
S'09/10 17:41'
tp6
a(I190
S'pedros'
I8
S'11/10 23:29'
tp7
a(I172
Vpedros
I8
S'15/11 21:22'
tp8
a(I165
Vpedros
I8
S'05/11 21:28'
tp9
a(I160
V
I8
S'15/11 21:25'
tp10
a.